; Function Attrs: mustprogress uwtable
define noundef nonnull align 8 dereferenceable(64) ptr @_ZN6icu_758TimeZone14getCanonicalIDERKNS_13UnicodeStringERS1_RaR10UErrorCode(ptr noundef nonnull align 8 dereferenceable(64) %id, ptr noundef nonnull returned align 8 dereferenceable(64) %canonicalID, ptr nocapture noundef nonnull writeonly align 1 dereferenceable(1) %isSystemID, ptr noundef nonnull align 4 dereferenceable(4) %status) local_unnamed_addr #0 align 2 personality ptr @__gxx_personality_v0 {
entry:
  %sign.i = alloca i32, align 4
  %hour.i = alloca i32, align 4
  %min.i = alloca i32, align 4
  %sec.i = alloca i32, align 4
  %fUnion.i.i = getelementptr inbounds i8, ptr %canonicalID, i64 8
  %0 = load i16, ptr %fUnion.i.i, align 8
  %conv2.i3.i = and i16 %0, 1
  %tobool.not.i = icmp eq i16 %conv2.i3.i, 0
  %1 = and i16 %0, 30
  %storemerge.i = select i1 %tobool.not.i, i16 %1, i16 2
  store i16 %storemerge.i, ptr %fUnion.i.i, align 8
  store i8 0, ptr %isSystemID, align 1
  %2 = load i32, ptr %status, align 4
  %cmp.i = icmp slt i32 %2, 1
  br i1 %cmp.i, label %if.end, label %return

if.end:                                           ; preds = %entry
  %fUnion.i.i.i = getelementptr inbounds i8, ptr %id, i64 8
  %3 = load i16, ptr %fUnion.i.i.i, align 8
  %cmp.i.i.i = icmp slt i16 %3, 0
  %4 = ashr i16 %3, 5
  %shr.i.i.i = sext i16 %4 to i32
  %fLength.i.i = getelementptr inbounds i8, ptr %id, i64 12
  %5 = load i32, ptr %fLength.i.i, align 4
  %cond.i.i = select i1 %cmp.i.i.i, i32 %5, i32 %shr.i.i.i
  %call3.i15 = invoke noundef signext i8 @_ZNK6icu_7513UnicodeString9doCompareEiiPKDsii(ptr noundef nonnull align 8 dereferenceable(64) %id, i32 noundef 0, i32 noundef %cond.i.i, ptr noundef nonnull @_ZL15UNKNOWN_ZONE_ID, i32 noundef 0, i32 noundef 11)
          to label %invoke.cont unwind label %lpad

invoke.cont:                                      ; preds = %if.end
  %cmp = icmp eq i8 %call3.i15, 0
  tail call void asm sideeffect "", "rm,~{memory},~{dirflag},~{fpsr},~{flags}"(ptr nonnull @_ZL15UNKNOWN_ZONE_ID) #18, !srcloc !4
  br i1 %cmp, label %if.then3, label %if.else

if.then3:                                         ; preds = %invoke.cont
  %call4 = tail call noundef nonnull align 8 dereferenceable(64) ptr @_ZN6icu_7513UnicodeString12fastCopyFromERKS0_(ptr noundef nonnull align 8 dereferenceable(64) %canonicalID, ptr noundef nonnull align 8 dereferenceable(64) %id)
  store i8 0, ptr %isSystemID, align 1
  br label %return

lpad:                                             ; preds = %if.end
  %6 = landingpad { ptr, i32 }
          cleanup
  tail call void asm sideeffect "", "rm,~{memory},~{dirflag},~{fpsr},~{flags}"(ptr nonnull @_ZL15UNKNOWN_ZONE_ID) #18, !srcloc !4
  resume { ptr, i32 } %6

if.else:                                          ; preds = %invoke.cont
  %call5 = tail call noundef nonnull align 8 dereferenceable(64) ptr @_ZN6icu_758ZoneMeta18getCanonicalCLDRIDERKNS_13UnicodeStringERS1_R10UErrorCode(ptr noundef nonnull align 8 dereferenceable(64) %id, ptr noundef nonnull align 8 dereferenceable(64) %canonicalID, ptr noundef nonnull align 4 dereferenceable(4) %status)
  %7 = load i32, ptr %status, align 4
  %cmp.i16 = icmp sgt i32 %7, 0
  br i1 %cmp.i16, label %if.else9, label %if.then8

if.then8:                                         ; preds = %if.else
  store i8 1, ptr %isSystemID, align 1
  br label %return

if.else9:                                         ; preds = %if.else
  store i32 0, ptr %status, align 4
  call void @llvm.lifetime.start.p0(i64 4, ptr nonnull %sign.i)
  call void @llvm.lifetime.start.p0(i64 4, ptr nonnull %hour.i)
  call void @llvm.lifetime.start.p0(i64 4, ptr nonnull %min.i)
  call void @llvm.lifetime.start.p0(i64 4, ptr nonnull %sec.i)
  %8 = load i16, ptr %fUnion.i.i, align 8
  %conv2.i3.i.i = and i16 %8, 1
  %tobool.not.i.i = icmp eq i16 %conv2.i3.i.i, 0
  %9 = and i16 %8, 30
  %storemerge.i.i = select i1 %tobool.not.i.i, i16 %9, i16 2
  store i16 %storemerge.i.i, ptr %fUnion.i.i, align 8
  %10 = load i32, ptr %status, align 4
  %cmp.i.i = icmp slt i32 %10, 1
  br i1 %cmp.i.i, label %if.end.i, label %_ZN6icu_758TimeZone11getCustomIDERKNS_13UnicodeStringERS1_R10UErrorCode.exit

if.end.i:                                         ; preds = %if.else9
  %call2.i = call noundef signext i8 @_ZN6icu_758TimeZone13parseCustomIDERKNS_13UnicodeStringERiS4_S4_S4_(ptr noundef nonnull align 8 dereferenceable(64) %id, ptr noundef nonnull align 4 dereferenceable(4) %sign.i, ptr noundef nonnull align 4 dereferenceable(4) %hour.i, ptr noundef nonnull align 4 dereferenceable(4) %min.i, ptr noundef nonnull align 4 dereferenceable(4) %sec.i), !range !5
  %tobool3.not.i = icmp eq i8 %call2.i, 0
  br i1 %tobool3.not.i, label %if.else.i, label %if.then4.i

if.then4.i:                                       ; preds = %if.end.i
  %11 = load i32, ptr %hour.i, align 4
  %12 = load i32, ptr %min.i, align 4
  %13 = load i32, ptr %sec.i, align 4
  %14 = load i32, ptr %sign.i, align 4
  %.lobit.i = lshr i32 %14, 31
  %conv.i19 = trunc i32 %.lobit.i to i8
  %call5.i = tail call noundef nonnull align 8 dereferenceable(64) ptr @_ZN6icu_758TimeZone14formatCustomIDEiiiaRNS_13UnicodeStringE(i32 noundef %11, i32 noundef %12, i32 noundef %13, i8 noundef signext %conv.i19, ptr noundef nonnull align 8 dereferenceable(64) %canonicalID)
  br label %_ZN6icu_758TimeZone11getCustomIDERKNS_13UnicodeStringERS1_R10UErrorCode.exit

if.else.i:                                        ; preds = %if.end.i
  store i32 1, ptr %status, align 4
  br label %_ZN6icu_758TimeZone11getCustomIDERKNS_13UnicodeStringERS1_R10UErrorCode.exit

_ZN6icu_758TimeZone11getCustomIDERKNS_13UnicodeStringERS1_R10UErrorCode.exit: ; preds = %if.else9, %if.then4.i, %if.else.i
  call void @llvm.lifetime.end.p0(i64 4, ptr nonnull %sign.i)
  call void @llvm.lifetime.end.p0(i64 4, ptr nonnull %hour.i)
  call void @llvm.lifetime.end.p0(i64 4, ptr nonnull %min.i)
  call void @llvm.lifetime.end.p0(i64 4, ptr nonnull %sec.i)
  br label %return

return:                                           ; preds = %if.then3, %_ZN6icu_758TimeZone11getCustomIDERKNS_13UnicodeStringERS1_R10UErrorCode.exit, %if.then8, %entry
  ret ptr %canonicalID
}